; Function Attrs: mustprogress nofree nounwind memory(write, argmem: readwrite) uwtable
define hidden void @_ZNK19OpenColorIO_v2_5dev29Renderer_ACES_GamutComp13_Inv5applyEPKvPvl(ptr noundef nonnull readonly align 8 captures(none) dereferenceable(48) %0, ptr noundef readonly captures(none) %1, ptr noundef writeonly captures(none) %2, i64 noundef %3) unnamed_addr #5 align 2 {
  %5 = icmp sgt i64 %3, 0
  br i1 %5, label %.lr.ph, label %._crit_edge

.lr.ph:                                           ; preds = %4
  %6 = getelementptr inbounds nuw i8, ptr %0, i64 20
  %7 = getelementptr inbounds nuw i8, ptr %0, i64 36
  %8 = getelementptr inbounds nuw i8, ptr %0, i64 32
  %9 = getelementptr inbounds nuw i8, ptr %0, i64 24
  %10 = getelementptr inbounds nuw i8, ptr %0, i64 40
  %11 = getelementptr inbounds nuw i8, ptr %0, i64 28
  %12 = getelementptr inbounds nuw i8, ptr %0, i64 44
  br label %13

._crit_edge:                                      ; preds = %_ZN19OpenColorIO_v2_5dev10gamut_compIPFfffffEEEffffffT_.exit24, %4
  ret void

13:                                               ; preds = %.lr.ph, %_ZN19OpenColorIO_v2_5dev10gamut_compIPFfffffEEEffffffT_.exit24
  %.040 = phi ptr [ %1, %.lr.ph ], [ %96, %_ZN19OpenColorIO_v2_5dev10gamut_compIPFfffffEEEffffffT_.exit24 ]
  %.01839 = phi i64 [ 0, %.lr.ph ], [ %98, %_ZN19OpenColorIO_v2_5dev10gamut_compIPFfffffEEEffffffT_.exit24 ]
  %.01938 = phi ptr [ %2, %.lr.ph ], [ %97, %_ZN19OpenColorIO_v2_5dev10gamut_compIPFfffffEEEffffffT_.exit24 ]
  %14 = load float, ptr %.040, align 4, !tbaa !13
  %15 = getelementptr inbounds nuw i8, ptr %.040, i64 4
  %16 = load float, ptr %15, align 4, !tbaa !13
  %17 = getelementptr inbounds nuw i8, ptr %.040, i64 8
  %18 = load float, ptr %17, align 4, !tbaa !13
  %19 = fcmp olt float %16, %18
  %20 = select i1 %19, float %18, float %16
  %21 = fcmp olt float %14, %20
  %.sroa.speculated = select i1 %21, float %20, float %14
  %22 = load float, ptr %6, align 4, !tbaa !48
  %23 = load float, ptr %7, align 4, !tbaa !52
  %24 = load float, ptr %8, align 8, !tbaa !51
  %25 = fcmp oeq float %.sroa.speculated, 0.000000e+00
  br i1 %25, label %_ZN19OpenColorIO_v2_5dev10gamut_compIPFfffffEEEffffffT_.exit22, label %26

26:                                               ; preds = %13
  %27 = fsub float %.sroa.speculated, %14
  %28 = tail call noundef float @llvm.fabs.f32(float %.sroa.speculated)
  %29 = fdiv float %27, %28
  %30 = fcmp olt float %29, %22
  br i1 %30, label %46, label %31

31:                                               ; preds = %26
  %32 = fadd float %22, %23
  %33 = fcmp ult float %29, %32
  br i1 %33, label %34, label %_ZN19OpenColorIO_v2_5dev10uncompressEffff.exit

34:                                               ; preds = %31
  %35 = fsub float %29, %22
  %36 = fdiv float %35, %23
  %37 = tail call noundef float @powf(float noundef %36, float noundef %24) #28, !tbaa !14
  %38 = fadd float %37, -1.000000e+00
  %39 = fneg float %37
  %40 = fdiv float %39, %38
  %41 = fdiv float 1.000000e+00, %24
  %42 = tail call noundef float @powf(float noundef %40, float noundef %41) #28, !tbaa !14
  %43 = tail call float @llvm.fmuladd.f32(float %23, float %42, float %22)
  br label %_ZN19OpenColorIO_v2_5dev10uncompressEffff.exit

_ZN19OpenColorIO_v2_5dev10uncompressEffff.exit:   ; preds = %31, %34
  %.0.i25 = phi float [ %43, %34 ], [ %29, %31 ]
  %44 = fneg float %.0.i25
  %45 = tail call float @llvm.fmuladd.f32(float %44, float %28, float %.sroa.speculated)
  br label %46

46:                                               ; preds = %26, %_ZN19OpenColorIO_v2_5dev10uncompressEffff.exit
  %.0.i.ph = phi float [ %14, %26 ], [ %45, %_ZN19OpenColorIO_v2_5dev10uncompressEffff.exit ]
  store float %.0.i.ph, ptr %.01938, align 4, !tbaa !13
  %47 = load float, ptr %9, align 8, !tbaa !49
  %48 = load float, ptr %10, align 8, !tbaa !53
  %49 = load float, ptr %8, align 8, !tbaa !51
  %50 = fsub float %.sroa.speculated, %16
  %51 = fdiv float %50, %28
  %52 = fcmp olt float %51, %47
  br i1 %52, label %69, label %53

53:                                               ; preds = %46
  %54 = fadd float %47, %48
  %55 = fcmp ult float %51, %54
  br i1 %55, label %56, label %_ZN19OpenColorIO_v2_5dev10uncompressEffff.exit27

56:                                               ; preds = %53
  %57 = fsub float %51, %47
  %58 = fdiv float %57, %48
  %59 = tail call noundef float @powf(float noundef %58, float noundef %49) #28, !tbaa !14
  %60 = fadd float %59, -1.000000e+00
  %61 = fneg float %59
  %62 = fdiv float %61, %60
  %63 = fdiv float 1.000000e+00, %49
  %64 = tail call noundef float @powf(float noundef %62, float noundef %63) #28, !tbaa !14
  %65 = tail call float @llvm.fmuladd.f32(float %48, float %64, float %47)
  br label %_ZN19OpenColorIO_v2_5dev10uncompressEffff.exit27

_ZN19OpenColorIO_v2_5dev10uncompressEffff.exit27: ; preds = %53, %56
  %.0.i26 = phi float [ %65, %56 ], [ %51, %53 ]
  %66 = fneg float %.0.i26
  %67 = tail call float @llvm.fmuladd.f32(float %66, float %28, float %.sroa.speculated)
  br label %69

_ZN19OpenColorIO_v2_5dev10gamut_compIPFfffffEEEffffffT_.exit22: ; preds = %13
  store float 0.000000e+00, ptr %.01938, align 4, !tbaa !13
  %68 = getelementptr inbounds nuw i8, ptr %.01938, i64 4
  store float 0.000000e+00, ptr %68, align 4, !tbaa !13
  br label %_ZN19OpenColorIO_v2_5dev10gamut_compIPFfffffEEEffffffT_.exit24

69:                                               ; preds = %46, %_ZN19OpenColorIO_v2_5dev10uncompressEffff.exit27
  %.0.i21.ph = phi float [ %16, %46 ], [ %67, %_ZN19OpenColorIO_v2_5dev10uncompressEffff.exit27 ]
  %70 = getelementptr inbounds nuw i8, ptr %.01938, i64 4
  store float %.0.i21.ph, ptr %70, align 4, !tbaa !13
  %71 = load float, ptr %11, align 4, !tbaa !50
  %72 = load float, ptr %12, align 4, !tbaa !54
  %73 = load float, ptr %8, align 8, !tbaa !51
  %74 = fsub float %.sroa.speculated, %18
  %75 = fdiv float %74, %28
  %76 = fcmp olt float %75, %71
  br i1 %76, label %_ZN19OpenColorIO_v2_5dev10gamut_compIPFfffffEEEffffffT_.exit24, label %77

77:                                               ; preds = %69
  %78 = fadd float %71, %72
  %79 = fcmp ult float %75, %78
  br i1 %79, label %80, label %_ZN19OpenColorIO_v2_5dev10uncompressEffff.exit29

80:                                               ; preds = %77
  %81 = fsub float %75, %71
  %82 = fdiv float %81, %72
  %83 = tail call noundef float @powf(float noundef %82, float noundef %73) #28, !tbaa !14
  %84 = fadd float %83, -1.000000e+00
  %85 = fneg float %83
  %86 = fdiv float %85, %84
  %87 = fdiv float 1.000000e+00, %73
  %88 = tail call noundef float @powf(float noundef %86, float noundef %87) #28, !tbaa !14
  %89 = tail call float @llvm.fmuladd.f32(float %72, float %88, float %71)
  br label %_ZN19OpenColorIO_v2_5dev10uncompressEffff.exit29

_ZN19OpenColorIO_v2_5dev10uncompressEffff.exit29: ; preds = %77, %80
  %.0.i28 = phi float [ %89, %80 ], [ %75, %77 ]
  %90 = fneg float %.0.i28
  %91 = tail call float @llvm.fmuladd.f32(float %90, float %28, float %.sroa.speculated)
  br label %_ZN19OpenColorIO_v2_5dev10gamut_compIPFfffffEEEffffffT_.exit24

_ZN19OpenColorIO_v2_5dev10gamut_compIPFfffffEEEffffffT_.exit24: ; preds = %_ZN19OpenColorIO_v2_5dev10gamut_compIPFfffffEEEffffffT_.exit22, %69, %_ZN19OpenColorIO_v2_5dev10uncompressEffff.exit29
  %.0.i23 = phi float [ 0.000000e+00, %_ZN19OpenColorIO_v2_5dev10gamut_compIPFfffffEEEffffffT_.exit22 ], [ %91, %_ZN19OpenColorIO_v2_5dev10uncompressEffff.exit29 ], [ %18, %69 ]
  %92 = getelementptr inbounds nuw i8, ptr %.01938, i64 8
  store float %.0.i23, ptr %92, align 4, !tbaa !13
  %93 = getelementptr inbounds nuw i8, ptr %.040, i64 12
  %94 = load float, ptr %93, align 4, !tbaa !13
  %95 = getelementptr inbounds nuw i8, ptr %.01938, i64 12
  store float %94, ptr %95, align 4, !tbaa !13
  %96 = getelementptr inbounds nuw i8, ptr %.040, i64 16
  %97 = getelementptr inbounds nuw i8, ptr %.01938, i64 16
  %98 = add nuw nsw i64 %.01839, 1
  %exitcond.not = icmp eq i64 %98, %3
  br i1 %exitcond.not, label %._crit_edge, label %13, !llvm.loop !56
}